; Function Attrs: mustprogress nounwind uwtable
define void @_ZN4LIEF5MachO14FunctionStartsC2ERKNS0_7details21linkedit_data_commandE(ptr noundef nonnull align 8 dereferenceable(104) %0, ptr noundef nonnull readonly align 4 captures(none) dereferenceable(16) %1) unnamed_addr #0 align 2 {
  %3 = load i32, ptr %1, align 4, !tbaa !3
  %4 = zext i32 %3 to i64
  %5 = getelementptr inbounds nuw i8, ptr %1, i64 4
  %6 = load i32, ptr %5, align 4, !tbaa !8
  tail call void @_ZN4LIEF6ObjectC2Ev(ptr noundef nonnull align 8 dereferenceable(56) %0) #21
  %7 = getelementptr inbounds nuw i8, ptr %0, i64 8
  tail call void @llvm.memset.p0.i64(ptr noundef nonnull align 8 dereferenceable(24) %7, i8 0, i64 24, i1 false)
  %8 = getelementptr inbounds nuw i8, ptr %0, i64 32
  store i64 %4, ptr %8, align 8, !tbaa !9
  %9 = getelementptr inbounds nuw i8, ptr %0, i64 40
  store i32 %6, ptr %9, align 8, !tbaa !20
  %10 = getelementptr inbounds nuw i8, ptr %0, i64 48
  store i64 0, ptr %10, align 8, !tbaa !21
  store ptr getelementptr inbounds nuw inrange(-16, 56) (i8, ptr @_ZTVN4LIEF5MachO14FunctionStartsE, i64 16), ptr %0, align 8, !tbaa !22
  %11 = getelementptr inbounds nuw i8, ptr %0, i64 56
  %12 = getelementptr inbounds nuw i8, ptr %1, i64 8
  %13 = load i32, ptr %12, align 4, !tbaa !24
  store i32 %13, ptr %11, align 8, !tbaa !25
  %14 = getelementptr inbounds nuw i8, ptr %0, i64 60
  %15 = getelementptr inbounds nuw i8, ptr %1, i64 12
  %16 = load i32, ptr %15, align 4, !tbaa !34
  store i32 %16, ptr %14, align 4, !tbaa !35
  %17 = getelementptr inbounds nuw i8, ptr %0, i64 64
  tail call void @llvm.memset.p0.i64(ptr noundef nonnull align 8 dereferenceable(40) %17, i8 0, i64 40, i1 false)
  ret void
}